(dp0
S'cookies'
p1
(dp2
S'webwx_data_ticket'
p3
S'gSdzU7D7VCmK6kLYm/REsyf8'
p4
sS'wxuin'
p5
S'1059617351'
p6
sS'webwxuvid'
p7
S'7e7876624bedc284f3184c1f6790bab3fb32382982efcab8e8e342feffde08084d7eacd58ec0dd5b5934762d984ea238'
p8
sS'webwx_auth_ticket'
p9
S'CIsBEIHz4qwOGoAB6e/2gBxNrbvLSYvZ6sEa7pcl65diPjyZ2lDKbWoj6R1hg1cyC3eMtluSIcwockeE1rFtthBYz0fgcSK9CKijLujMJxe+V9SAtUxLxdZDUdN/QHJgDAa6zTkGYu+lwz7sXk6T0LmWCSzbGohUtURcm9PybIL/9mUkTldZR3Y8S0Q='
p10
sS'wxloadtime'
p11
S'1488957301_expired'
p12
sS'wxpluginkey'
p13
S'1488934262'
p14
sS'wxsid'
p15
S'f7PxyPc1Cfip7gPz'
p16
sS'mm_lang'
p17
S'zh_CN'
p18
ssS'version'
p19
S'1.2.27'
p20
sS'storage'
p21
(dp22
S'userName'
p23
V@81d220b3ed273e9d1a9d0bd871cc198f5999208926fda248aa8006daa5ffffb0
p24
sS'lastInputUserName'
p25
NsS'memberList'
p26
(lp27
(dp28
S'UserName'
p29
g24
sS'City'
p30
S''
p31
sS'DisplayName'
p32
g31
sS'UniFriend'
p33
I0
sS'OwnerUin'
p34
I0
sS'MemberList'
p35
(lp36
sS'PYQuanPin'
p37
V
p38
sS'RemarkPYInitial'
p39
g38
sS'Uin'
p40
I1059617351
sS'AppAccountFlag'
p41
I0
sS'VerifyFlag'
p42
I0
sS'Province'
p43
g31
sS'KeyWord'
p44
g31
sS'RemarkName'
p45
g38
sS'PYInitial'
p46
g38
sS'ChatRoomId'
p47
I0
sS'HideInputBarFlag'
p48
I0
sVHeadImgFlag
p49
I1
sS'EncryChatRoomId'
p50
g31
sS'AttrStatus'
p51
I0
sS'SnsFlag'
p52
I0
sS'MemberCount'
p53
I0
sVWebWxPluginSwitch
p54
I0
sS'Alias'
p55
g31
sS'Signature'
p56
g38
sS'ContactFlag'
p57
I0
sS'NickName'
p58
VCoral
p59
sS'RemarkPYQuanPin'
p60
g38
sS'HeadImgUrl'
p61
V/cgi-bin/mmwebwx-bin/webwxgeticon?seq=1782193440&username=@81d220b3ed273e9d1a9d0bd871cc198f5999208926fda248aa8006daa5ffffb0&skey=@crypt_4c00d0e1_bf264d5f643dcc22a8b1701b72f216ca
p62
sS'Sex'
p63
I0
sS'StarFriend'
p64
I0
sS'Statues'
p65
I0
sa(dp66
VUserName
p67
V@f3ca6485604bf7a0b3518d4930e5cbdee824941efc1905597b5e6ddad15d3658
p68
sVCity
p69
V\u4e2d\u897f\u533a
p70
sVDisplayName
p71
g38
sVUniFriend
p72
I0
sVMemberList
p73
(lp74
sVPYQuanPin
p75
g38
sVRemarkPYInitial
p76
g38
sVSex
p77
I1
sVAppAccountFlag
p78
I0
sVVerifyFlag
p79
I0
sVProvince
p80
V\u9999\u6e2f
p81
sVKeyWord
p82
g38
sVRemarkName
p83
g38
sVPYInitial
p84
g38
sVIsOwner
p85
I0
sVChatRoomId
p86
I0
sVHideInputBarFlag
p87
I0
sVEncryChatRoomId
p88
g38
sVAttrStatus
p89
I37847143
sVSnsFlag
p90
I49
sVMemberCount
p91
I0
sVOwnerUin
p92
I0
sVAlias
p93
VThoma_Gu
p94
sVSignature
p95
V\u80f8\u304c\u75db\u3044\u3001\u65e5\u3005\u5f37\u307e\u308b
p96
sVContactFlag
p97
I3
sVNickName
p98
V\u30de\u30eb\u30c1\u30d1\u30b9
p99
sVRemarkPYQuanPin
p100
g38
sVHeadImgUrl
p101
V/cgi-bin/mmwebwx-bin/webwxgeticon?seq=647880064&username=@f3ca6485604bf7a0b3518d4930e5cbdee824941efc1905597b5e6ddad15d3658&skey=@crypt_4c00d0e1_bf264d5f643dcc22a8b1701b72f216ca
p102
sVUin
p103
Vwxid_xgph596ajfxh12
p104
sVStarFriend
p105
I0
sVStatues
p106
I0
sasS'chatroomList'
p107
(lp108
sS'nickName'
p109
g59
sS'mpList'
p110
(lp111
ssS'loginInfo'
p112
(dp113
S'SyncKey'
p114
(dp115
VCount
p116
I9
sVList
p117
(lp118
(dp119
VVal
p120
I647880085
sVKey
p121
I1
sa(dp122
VVal
p123
I647880092
sVKey
p124
I2
sa(dp125
VVal
p126
I647880064
sVKey
p127
I3
sa(dp128
VVal
p129
I647880012
sVKey
p130
I11
sa(dp131
VVal
p132
I647880012
sVKey
p133
I13
sa(dp134
VVal
p135
I1488959281
sVKey
p136
I201
sa(dp137
VVal
p138
I1488934262
sVKey
p139
I1000
sa(dp140
VVal
p141
I1488934292
sVKey
p142
I1001
sa(dp143
VVal
p144
I1488859979
sVKey
p145
I1003
sassS'syncUrl'
p146
S'https://webpush.web.wechat.com/cgi-bin/mmwebwx-bin'
p147
sS'skey'
p148
V@crypt_4c00d0e1_bf264d5f643dcc22a8b1701b72f216ca
p149
sS'wxuin'
p150
V1059617351
p151
sS'synckey'
p152
S'1_647880085|2_647880092|3_647880064|11_647880012|13_647880012|201_1488959281|1000_1488934262|1001_1488934292|1003_1488859979'
p153
sS'url'
p154
Vhttps://web.wechat.com/cgi-bin/mmwebwx-bin
p155
sS'pass_ticket'
p156
V35aSttODnTZMiou7%2BxJ9v9C087xjTCfcWoYWANyF03knm19w4vbp6dnQGT1FCf14
p157
sS'wxsid'
p158
Vf7PxyPc1Cfip7gPz
p159
sS'User'
p160
g28
sS'InviteStartCount'
p161
I40
sS'fileUrl'
p162
S'https://file.web.wechat.com/cgi-bin/mmwebwx-bin'
p163
sS'BaseRequest'
p164
(dp165
S'Sid'
p166
g159
sS'Skey'
p167
g149
sS'DeviceID'
p168
g157
sg40
g151
ssS'deviceid'
p169
S'e275584183735061'
p170
ss.